; Function Attrs: nounwind uwtable
define void @assert_str(ptr noundef %0, ptr noundef %1, ptr noundef %2, i32 noundef %3) local_unnamed_addr #6 {
  %5 = icmp eq ptr %0, null
  %6 = icmp ne ptr %1, null
  %or.cond = and i1 %5, %6
  br i1 %or.cond, label %13, label %7

7:                                                ; preds = %4
  %8 = icmp ne ptr %0, null
  %9 = icmp eq ptr %1, null
  %or.cond3 = and i1 %8, %9
  br i1 %or.cond3, label %13, label %10

10:                                               ; preds = %7
  %or.cond5 = and i1 %8, %6
  br i1 %or.cond5, label %11, label %14

11:                                               ; preds = %10
  %12 = tail call i32 @strcmp(ptr noundef nonnull dereferenceable(1) %0, ptr noundef nonnull dereferenceable(1) %1) #16
  %.not = icmp eq i32 %12, 0
  br i1 %.not, label %14, label %13

13:                                               ; preds = %7, %4, %11
  tail call void (ptr, ...) @CTEST_ERR(ptr noundef nonnull @.str.4, ptr noundef %2, i32 noundef %3, ptr noundef %0, ptr noundef %1)
  unreachable

14:                                               ; preds = %11, %10
  ret void
}